; ModuleID = 'source-C-CXX/24/1138.cpp'
source_filename = "source-C-CXX/24/1138.cpp"
target datalayout = "e-m:e-p270:32:32-p271:32:32-p272:64:64-i64:64-f80:128-n8:16:32:64-S128"
target triple = "x86_64-pc-linux-gnu"

%"class.std::ios_base::Init" = type { i8 }
%"class.std::basic_istream" = type { i32 (...)**, i64, %"class.std::basic_ios" }
%"class.std::basic_ios" = type { %"class.std::ios_base", %"class.std::basic_ostream"*, i8, i8, %"class.std::basic_streambuf"*, %"class.std::ctype"*, %"class.std::num_put"*, %"class.std::num_get"* }
%"class.std::ios_base" = type { i32 (...)**, i64, i64, i32, i32, i32, %"struct.std::ios_base::_Callback_list"*, %"struct.std::ios_base::_Words", [8 x %"struct.std::ios_base::_Words"], i32, %"struct.std::ios_base::_Words"*, %"class.std::locale" }
%"struct.std::ios_base::_Callback_list" = type { %"struct.std::ios_base::_Callback_list"*, void (i32, %"class.std::ios_base"*, i32)*, i32, i32 }
%"struct.std::ios_base::_Words" = type { i8*, i64 }
%"class.std::locale" = type { %"class.std::locale::_Impl"* }
%"class.std::locale::_Impl" = type { i32, %"class.std::locale::facet"**, i64, %"class.std::locale::facet"**, i8** }
%"class.std::locale::facet" = type <{ i32 (...)**, i32, [4 x i8] }>
%"class.std::basic_ostream" = type { i32 (...)**, %"class.std::basic_ios" }
%"class.std::basic_streambuf" = type { i32 (...)**, i8*, i8*, i8*, i8*, i8*, i8*, %"class.std::locale" }
%"class.std::ctype" = type <{ %"class.std::locale::facet.base", [4 x i8], %struct.__locale_struct*, i8, [7 x i8], i32*, i32*, i16*, i8, [256 x i8], [256 x i8], i8, [6 x i8] }>
%"class.std::locale::facet.base" = type <{ i32 (...)**, i32 }>
%struct.__locale_struct = type { [13 x %struct.__locale_data*], i16*, i32*, i32*, [13 x i8*] }
%struct.__locale_data = type opaque
%"class.std::num_put" = type { %"class.std::locale::facet.base", [4 x i8] }
%"class.std::num_get" = type { %"class.std::locale::facet.base", [4 x i8] }

@_ZStL8__ioinit = internal global %"class.std::ios_base::Init" zeroinitializer, align 1
@__dso_handle = external hidden global i8
@_ZSt3cin = external global %"class.std::basic_istream", align 8
@_ZSt4cout = external global %"class.std::basic_ostream", align 8
@llvm.global_ctors = appending global [1 x { i32, void ()*, i8* }] [{ i32, void ()*, i8* } { i32 65535, void ()* @_GLOBAL__sub_I_1138.cpp, i8* null }]

declare void @_ZNSt8ios_base4InitC1Ev(%"class.std::ios_base::Init"* nonnull align 1 dereferenceable(1)) unnamed_addr #0

; Function Attrs: nounwind
declare void @_ZNSt8ios_base4InitD1Ev(%"class.std::ios_base::Init"* nonnull align 1 dereferenceable(1)) unnamed_addr #1

; Function Attrs: nofree nounwind
declare i32 @__cxa_atexit(void (i8*)*, i8*, i8*) local_unnamed_addr #2

; Function Attrs: mustprogress norecurse sspstrong uwtable
define dso_local i32 @main() local_unnamed_addr #3 {
  %1 = alloca [40 x i32], align 16
  %2 = alloca [40 x i32], align 16
  %3 = alloca [40 x i32], align 16
  %4 = alloca i32, align 4
  %5 = bitcast [40 x i32]* %1 to i8*
  call void @llvm.lifetime.start.p0i8(i64 160, i8* nonnull %5) #7
  %6 = bitcast [40 x i32]* %2 to i8*
  call void @llvm.lifetime.start.p0i8(i64 160, i8* nonnull %6) #7
  %7 = bitcast [40 x i32]* %3 to i8*
  call void @llvm.lifetime.start.p0i8(i64 160, i8* nonnull %7) #7
  %8 = bitcast i32* %4 to i8*
  call void @llvm.lifetime.start.p0i8(i64 4, i8* nonnull %8) #7
  %9 = getelementptr inbounds [40 x i32], [40 x i32]* %1, i64 0, i64 0
  store i32 1, i32* %9, align 16, !tbaa !5
  %10 = getelementptr inbounds [40 x i32], [40 x i32]* %2, i64 0, i64 -1
  store i32 0, i32* %10, align 4, !tbaa !5
  %11 = getelementptr inbounds [40 x i32], [40 x i32]* %3, i64 0, i64 0
  store i32 1, i32* %11, align 16, !tbaa !5
  %12 = getelementptr inbounds [40 x i32], [40 x i32]* %1, i64 0, i64 1
  %13 = bitcast i32* %12 to i8*
  call void @llvm.memset.p0i8.i64(i8* noundef nonnull align 4 dereferenceable(156) %13, i8 0, i64 156, i1 false)
  %14 = getelementptr inbounds [40 x i32], [40 x i32]* %3, i64 0, i64 1
  %15 = bitcast i32* %14 to i8*
  call void @llvm.memset.p0i8.i64(i8* noundef nonnull align 4 dereferenceable(156) %15, i8 0, i64 156, i1 false)
  %16 = call nonnull align 8 dereferenceable(16) %"class.std::basic_istream"* @_ZNSirsERi(%"class.std::basic_istream"* nonnull align 8 dereferenceable(16) @_ZSt3cin, i32* nonnull align 4 dereferenceable(4) %4)
  %17 = load i32, i32* %4, align 4, !tbaa !5
  %18 = icmp sgt i32 %17, 0
  br i1 %18, label %20, label %19

19:                                               ; preds = %25, %0
  br label %46

20:                                               ; preds = %0
  %21 = getelementptr [40 x i32], [40 x i32]* %2, i64 0, i64 -1
  %22 = load i32, i32* %21, align 4
  br label %23

23:                                               ; preds = %20, %25
  %24 = phi i32 [ %26, %25 ], [ 0, %20 ]
  br label %28

25:                                               ; preds = %42
  %26 = add nuw nsw i32 %24, 1
  %27 = icmp eq i32 %26, %17
  br i1 %27, label %19, label %23, !llvm.loop !9

28:                                               ; preds = %23, %42
  %29 = phi i32 [ %22, %23 ], [ %34, %42 ]
  %30 = phi i64 [ 0, %23 ], [ %43, %42 ]
  %31 = getelementptr inbounds [40 x i32], [40 x i32]* %1, i64 0, i64 %30
  %32 = load i32, i32* %31, align 4, !tbaa !5
  %33 = icmp sgt i32 %32, 4
  %34 = zext i1 %33 to i32
  %35 = getelementptr inbounds [40 x i32], [40 x i32]* %2, i64 0, i64 %30
  store i32 %34, i32* %35, align 4
  %36 = shl nsw i32 %32, 1
  %37 = srem i32 %36, 10
  %38 = add nsw i32 %29, %37
  store i32 %38, i32* %31, align 4, !tbaa !5
  %39 = icmp eq i32 %38, 0
  br i1 %39, label %42, label %40

40:                                               ; preds = %28
  %41 = getelementptr inbounds [40 x i32], [40 x i32]* %3, i64 0, i64 %30
  store i32 1, i32* %41, align 4, !tbaa !5
  br label %42

42:                                               ; preds = %28, %40
  %43 = add nuw nsw i64 %30, 1
  %44 = icmp eq i64 %43, 39
  br i1 %44, label %25, label %28, !llvm.loop !11

45:                                               ; preds = %55
  call void @llvm.lifetime.end.p0i8(i64 4, i8* nonnull %8) #7
  call void @llvm.lifetime.end.p0i8(i64 160, i8* nonnull %7) #7
  call void @llvm.lifetime.end.p0i8(i64 160, i8* nonnull %6) #7
  call void @llvm.lifetime.end.p0i8(i64 160, i8* nonnull %5) #7
  ret i32 0

46:                                               ; preds = %19, %55
  %47 = phi i64 [ %56, %55 ], [ 39, %19 ]
  %48 = getelementptr inbounds [40 x i32], [40 x i32]* %3, i64 0, i64 %47
  %49 = load i32, i32* %48, align 4, !tbaa !5
  %50 = icmp eq i32 %49, 1
  br i1 %50, label %51, label %55

51:                                               ; preds = %46
  %52 = getelementptr inbounds [40 x i32], [40 x i32]* %1, i64 0, i64 %47
  %53 = load i32, i32* %52, align 4, !tbaa !5
  %54 = call nonnull align 8 dereferenceable(8) %"class.std::basic_ostream"* @_ZNSolsEi(%"class.std::basic_ostream"* nonnull align 8 dereferenceable(8) @_ZSt4cout, i32 %53)
  br label %55

55:                                               ; preds = %46, %51
  %56 = add nsw i64 %47, -1
  %57 = icmp eq i64 %47, 0
  br i1 %57, label %45, label %46, !llvm.loop !12
}

; Function Attrs: argmemonly mustprogress nofree nosync nounwind willreturn
declare void @llvm.lifetime.start.p0i8(i64 immarg, i8* nocapture) #4

; Function Attrs: argmemonly mustprogress nofree nosync nounwind willreturn
declare void @llvm.lifetime.end.p0i8(i64 immarg, i8* nocapture) #4

declare nonnull align 8 dereferenceable(16) %"class.std::basic_istream"* @_ZNSirsERi(%"class.std::basic_istream"* nonnull align 8 dereferenceable(16), i32* nonnull align 4 dereferenceable(4)) local_unnamed_addr #0

declare nonnull align 8 dereferenceable(8) %"class.std::basic_ostream"* @_ZNSolsEi(%"class.std::basic_ostream"* nonnull align 8 dereferenceable(8), i32) local_unnamed_addr #0

; Function Attrs: sspstrong uwtable
define internal void @_GLOBAL__sub_I_1138.cpp() #5 section ".text.startup" {
  tail call void @_ZNSt8ios_base4InitC1Ev(%"class.std::ios_base::Init"* nonnull align 1 dereferenceable(1) @_ZStL8__ioinit)
  %1 = tail call i32 @__cxa_atexit(void (i8*)* bitcast (void (%"class.std::ios_base::Init"*)* @_ZNSt8ios_base4InitD1Ev to void (i8*)*), i8* getelementptr inbounds (%"class.std::ios_base::Init", %"class.std::ios_base::Init"* @_ZStL8__ioinit, i64 0, i32 0), i8* nonnull @__dso_handle) #7
  ret void
}

; Function Attrs: argmemonly nofree nounwind willreturn writeonly
declare void @llvm.memset.p0i8.i64(i8* nocapture writeonly, i8, i64, i1 immarg) #6


!llvm.module.flags = !{!0, !1, !2, !3}
!llvm.ident = !{!4}

!0 = !{i32 1, !"wchar_size", i32 4}
!1 = !{i32 7, !"PIC Level", i32 2}
!2 = !{i32 7, !"PIE Level", i32 2}
!3 = !{i32 7, !"uwtable", i32 1}
!4 = !{!"clang version 13.0.0"}
!5 = !{!6, !6, i64 0}
!6 = !{!"int", !7, i64 0}
!7 = !{!"omnipotent char", !8, i64 0}
!8 = !{!"Simple C++ TBAA"}
!9 = distinct !{!9, !10}
!10 = !{!"llvm.loop.mustprogress"}
!11 = distinct !{!11, !10}
!12 = distinct !{!12, !10}
